
EXTInterrupts.elf:     file format elf32-littlearm


Disassembly of section .isr_vector:

08000000 <g_pfnVectors>:
 8000000:	20002800 	andcs	r2, r0, r0, lsl #16
 8000004:	08000291 	stmdaeq	r0, {r0, r4, r7, r9}
 8000008:	080002e1 	stmdaeq	r0, {r0, r5, r6, r7, r9}
 800000c:	080002e1 	stmdaeq	r0, {r0, r5, r6, r7, r9}
 8000010:	080002e1 	stmdaeq	r0, {r0, r5, r6, r7, r9}
 8000014:	080002e1 	stmdaeq	r0, {r0, r5, r6, r7, r9}
 8000018:	080002e1 	stmdaeq	r0, {r0, r5, r6, r7, r9}
	...
 800002c:	080002e1 	stmdaeq	r0, {r0, r5, r6, r7, r9}
 8000030:	080002e1 	stmdaeq	r0, {r0, r5, r6, r7, r9}
 8000034:	00000000 	andeq	r0, r0, r0
 8000038:	080002e1 	stmdaeq	r0, {r0, r5, r6, r7, r9}
 800003c:	080002e1 	stmdaeq	r0, {r0, r5, r6, r7, r9}
 8000040:	080002e1 	stmdaeq	r0, {r0, r5, r6, r7, r9}
 8000044:	080002e1 	stmdaeq	r0, {r0, r5, r6, r7, r9}
 8000048:	080002e1 	stmdaeq	r0, {r0, r5, r6, r7, r9}
 800004c:	080002e1 	stmdaeq	r0, {r0, r5, r6, r7, r9}
 8000050:	080002e1 	stmdaeq	r0, {r0, r5, r6, r7, r9}
 8000054:	080002e1 	stmdaeq	r0, {r0, r5, r6, r7, r9}
 8000058:	08000259 	stmdaeq	r0, {r0, r3, r4, r6, r9}
 800005c:	080002e1 	stmdaeq	r0, {r0, r5, r6, r7, r9}
 8000060:	080002e1 	stmdaeq	r0, {r0, r5, r6, r7, r9}
 8000064:	080002e1 	stmdaeq	r0, {r0, r5, r6, r7, r9}
 8000068:	080002e1 	stmdaeq	r0, {r0, r5, r6, r7, r9}
 800006c:	080002e1 	stmdaeq	r0, {r0, r5, r6, r7, r9}
 8000070:	080002e1 	stmdaeq	r0, {r0, r5, r6, r7, r9}
 8000074:	080002e1 	stmdaeq	r0, {r0, r5, r6, r7, r9}
 8000078:	080002e1 	stmdaeq	r0, {r0, r5, r6, r7, r9}
 800007c:	080002e1 	stmdaeq	r0, {r0, r5, r6, r7, r9}
 8000080:	080002e1 	stmdaeq	r0, {r0, r5, r6, r7, r9}
 8000084:	080002e1 	stmdaeq	r0, {r0, r5, r6, r7, r9}
 8000088:	080002e1 	stmdaeq	r0, {r0, r5, r6, r7, r9}
 800008c:	080002e1 	stmdaeq	r0, {r0, r5, r6, r7, r9}
 8000090:	080002e1 	stmdaeq	r0, {r0, r5, r6, r7, r9}
 8000094:	080002e1 	stmdaeq	r0, {r0, r5, r6, r7, r9}
 8000098:	080002e1 	stmdaeq	r0, {r0, r5, r6, r7, r9}
 800009c:	080002e1 	stmdaeq	r0, {r0, r5, r6, r7, r9}
 80000a0:	080002e1 	stmdaeq	r0, {r0, r5, r6, r7, r9}
 80000a4:	080002e1 	stmdaeq	r0, {r0, r5, r6, r7, r9}
 80000a8:	080002e1 	stmdaeq	r0, {r0, r5, r6, r7, r9}
 80000ac:	080002e1 	stmdaeq	r0, {r0, r5, r6, r7, r9}
 80000b0:	080002e1 	stmdaeq	r0, {r0, r5, r6, r7, r9}
 80000b4:	080002e1 	stmdaeq	r0, {r0, r5, r6, r7, r9}
 80000b8:	080002e1 	stmdaeq	r0, {r0, r5, r6, r7, r9}
 80000bc:	080002e1 	stmdaeq	r0, {r0, r5, r6, r7, r9}
 80000c0:	080002e1 	stmdaeq	r0, {r0, r5, r6, r7, r9}
 80000c4:	080002e1 	stmdaeq	r0, {r0, r5, r6, r7, r9}
 80000c8:	080002e1 	stmdaeq	r0, {r0, r5, r6, r7, r9}
 80000cc:	080002e1 	stmdaeq	r0, {r0, r5, r6, r7, r9}
 80000d0:	080002e1 	stmdaeq	r0, {r0, r5, r6, r7, r9}
 80000d4:	080002e1 	stmdaeq	r0, {r0, r5, r6, r7, r9}
 80000d8:	080002e1 	stmdaeq	r0, {r0, r5, r6, r7, r9}
 80000dc:	080002e1 	stmdaeq	r0, {r0, r5, r6, r7, r9}
 80000e0:	080002e1 	stmdaeq	r0, {r0, r5, r6, r7, r9}
 80000e4:	080002e1 	stmdaeq	r0, {r0, r5, r6, r7, r9}
 80000e8:	00000000 	andeq	r0, r0, r0
 80000ec:	080002e1 	stmdaeq	r0, {r0, r5, r6, r7, r9}
 80000f0:	080002e1 	stmdaeq	r0, {r0, r5, r6, r7, r9}
 80000f4:	080002e1 	stmdaeq	r0, {r0, r5, r6, r7, r9}
 80000f8:	080002e1 	stmdaeq	r0, {r0, r5, r6, r7, r9}
 80000fc:	080002e1 	stmdaeq	r0, {r0, r5, r6, r7, r9}
 8000100:	080002e1 	stmdaeq	r0, {r0, r5, r6, r7, r9}
 8000104:	080002e1 	stmdaeq	r0, {r0, r5, r6, r7, r9}
 8000108:	080002e1 	stmdaeq	r0, {r0, r5, r6, r7, r9}
 800010c:	080002e1 	stmdaeq	r0, {r0, r5, r6, r7, r9}
 8000110:	080002e1 	stmdaeq	r0, {r0, r5, r6, r7, r9}
 8000114:	080002e1 	stmdaeq	r0, {r0, r5, r6, r7, r9}
 8000118:	080002e1 	stmdaeq	r0, {r0, r5, r6, r7, r9}
 800011c:	080002e1 	stmdaeq	r0, {r0, r5, r6, r7, r9}
 8000120:	080002e1 	stmdaeq	r0, {r0, r5, r6, r7, r9}
 8000124:	080002e1 	stmdaeq	r0, {r0, r5, r6, r7, r9}
 8000128:	080002e1 	stmdaeq	r0, {r0, r5, r6, r7, r9}
 800012c:	080002e1 	stmdaeq	r0, {r0, r5, r6, r7, r9}

Disassembly of section .text:

08000130 <__do_global_dtors_aux>:
 8000130:	b510      	push	{r4, lr}
 8000132:	4c05      	ldr	r4, [pc, #20]	; (8000148 <__do_global_dtors_aux+0x18>)
 8000134:	7823      	ldrb	r3, [r4, #0]
 8000136:	b933      	cbnz	r3, 8000146 <__do_global_dtors_aux+0x16>
 8000138:	4b04      	ldr	r3, [pc, #16]	; (800014c <__do_global_dtors_aux+0x1c>)
 800013a:	b113      	cbz	r3, 8000142 <__do_global_dtors_aux+0x12>
 800013c:	4804      	ldr	r0, [pc, #16]	; (8000150 <__do_global_dtors_aux+0x20>)
 800013e:	f3af 8000 	nop.w
 8000142:	2301      	movs	r3, #1
 8000144:	7023      	strb	r3, [r4, #0]
 8000146:	bd10      	pop	{r4, pc}
 8000148:	20000004 	andcs	r0, r0, r4
 800014c:	00000000 	andeq	r0, r0, r0
 8000150:	0800032c 	stmdaeq	r0, {r2, r3, r5, r8, r9}

08000154 <frame_dummy>:
 8000154:	b508      	push	{r3, lr}
 8000156:	4b03      	ldr	r3, [pc, #12]	; (8000164 <frame_dummy+0x10>)
 8000158:	b11b      	cbz	r3, 8000162 <frame_dummy+0xe>
 800015a:	4903      	ldr	r1, [pc, #12]	; (8000168 <frame_dummy+0x14>)
 800015c:	4803      	ldr	r0, [pc, #12]	; (800016c <frame_dummy+0x18>)
 800015e:	f3af 8000 	nop.w
 8000162:	bd08      	pop	{r3, pc}
 8000164:	00000000 	andeq	r0, r0, r0
 8000168:	20000008 	andcs	r0, r0, r8
 800016c:	0800032c 	stmdaeq	r0, {r2, r3, r5, r8, r9}

08000170 <clockInit>:
 8000170:	b480      	push	{r7}
 8000172:	af00      	add	r7, sp, #0
 8000174:	4b07      	ldr	r3, [pc, #28]	; (8000194 <clockInit+0x24>)
 8000176:	681b      	ldr	r3, [r3, #0]
 8000178:	4a06      	ldr	r2, [pc, #24]	; (8000194 <clockInit+0x24>)
 800017a:	f043 0304 	orr.w	r3, r3, #4
 800017e:	6013      	str	r3, [r2, #0]
 8000180:	4b04      	ldr	r3, [pc, #16]	; (8000194 <clockInit+0x24>)
 8000182:	681b      	ldr	r3, [r3, #0]
 8000184:	4a03      	ldr	r2, [pc, #12]	; (8000194 <clockInit+0x24>)
 8000186:	f043 0301 	orr.w	r3, r3, #1
 800018a:	6013      	str	r3, [r2, #0]
 800018c:	bf00      	nop
 800018e:	46bd      	mov	sp, r7
 8000190:	bc80      	pop	{r7}
 8000192:	4770      	bx	lr
 8000194:	40021018 	andmi	r1, r2, r8, lsl r0

08000198 <gpioInit>:
 8000198:	b480      	push	{r7}
 800019a:	af00      	add	r7, sp, #0
 800019c:	4b0a      	ldr	r3, [pc, #40]	; (80001c8 <gpioInit+0x30>)
 800019e:	681b      	ldr	r3, [r3, #0]
 80001a0:	4a09      	ldr	r2, [pc, #36]	; (80001c8 <gpioInit+0x30>)
 80001a2:	f423 0370 	bic.w	r3, r3, #15728640	; 0xf00000
 80001a6:	6013      	str	r3, [r2, #0]
 80001a8:	4b07      	ldr	r3, [pc, #28]	; (80001c8 <gpioInit+0x30>)
 80001aa:	681b      	ldr	r3, [r3, #0]
 80001ac:	4a06      	ldr	r2, [pc, #24]	; (80001c8 <gpioInit+0x30>)
 80001ae:	f443 1300 	orr.w	r3, r3, #2097152	; 0x200000
 80001b2:	6013      	str	r3, [r2, #0]
 80001b4:	4b05      	ldr	r3, [pc, #20]	; (80001cc <gpioInit+0x34>)
 80001b6:	681b      	ldr	r3, [r3, #0]
 80001b8:	4a04      	ldr	r2, [pc, #16]	; (80001cc <gpioInit+0x34>)
 80001ba:	f043 0304 	orr.w	r3, r3, #4
 80001be:	6013      	str	r3, [r2, #0]
 80001c0:	bf00      	nop
 80001c2:	46bd      	mov	sp, r7
 80001c4:	bc80      	pop	{r7}
 80001c6:	4770      	bx	lr
 80001c8:	40010804 	andmi	r0, r1, r4, lsl #16
 80001cc:	40010800 	andmi	r0, r1, r0, lsl #16

080001d0 <main>:
 80001d0:	b580      	push	{r7, lr}
 80001d2:	af00      	add	r7, sp, #0
 80001d4:	bf00      	nop
 80001d6:	bf00      	nop
 80001d8:	bf00      	nop
 80001da:	f04f 03ff 	mov.w	r3, #255	; 0xff
 80001de:	4a16      	ldr	r2, [pc, #88]	; (8000238 <main+0x68>)
 80001e0:	6013      	str	r3, [r2, #0]
 80001e2:	4b15      	ldr	r3, [pc, #84]	; (8000238 <main+0x68>)
 80001e4:	681b      	ldr	r3, [r3, #0]
 80001e6:	4618      	mov	r0, r3
 80001e8:	4b13      	ldr	r3, [pc, #76]	; (8000238 <main+0x68>)
 80001ea:	681b      	ldr	r3, [r3, #0]
 80001ec:	4a13      	ldr	r2, [pc, #76]	; (800023c <main+0x6c>)
 80001ee:	6812      	ldr	r2, [r2, #0]
 80001f0:	4413      	add	r3, r2
 80001f2:	4a13      	ldr	r2, [pc, #76]	; (8000240 <main+0x70>)
 80001f4:	6013      	str	r3, [r2, #0]
 80001f6:	f3ef 8314 	mrs	r3, CONTROL
 80001fa:	4a12      	ldr	r2, [pc, #72]	; (8000244 <main+0x74>)
 80001fc:	6013      	str	r3, [r2, #0]
 80001fe:	bf00      	nop
 8000200:	bf00      	nop
 8000202:	bf00      	nop
 8000204:	f7ff ffb4 	bl	8000170 <clockInit>
 8000208:	f7ff ffc6 	bl	8000198 <gpioInit>
 800020c:	4b0e      	ldr	r3, [pc, #56]	; (8000248 <main+0x78>)
 800020e:	2200      	movs	r2, #0
 8000210:	601a      	str	r2, [r3, #0]
 8000212:	4b0e      	ldr	r3, [pc, #56]	; (800024c <main+0x7c>)
 8000214:	681b      	ldr	r3, [r3, #0]
 8000216:	4a0d      	ldr	r2, [pc, #52]	; (800024c <main+0x7c>)
 8000218:	f043 0301 	orr.w	r3, r3, #1
 800021c:	6013      	str	r3, [r2, #0]
 800021e:	4b0c      	ldr	r3, [pc, #48]	; (8000250 <main+0x80>)
 8000220:	681b      	ldr	r3, [r3, #0]
 8000222:	4a0b      	ldr	r2, [pc, #44]	; (8000250 <main+0x80>)
 8000224:	f043 0301 	orr.w	r3, r3, #1
 8000228:	6013      	str	r3, [r2, #0]
 800022a:	4b0a      	ldr	r3, [pc, #40]	; (8000254 <main+0x84>)
 800022c:	681b      	ldr	r3, [r3, #0]
 800022e:	4a09      	ldr	r2, [pc, #36]	; (8000254 <main+0x84>)
 8000230:	f043 0340 	orr.w	r3, r3, #64	; 0x40
 8000234:	6013      	str	r3, [r2, #0]
 8000236:	e7fe      	b.n	8000236 <main+0x66>
 8000238:	20000020 	andcs	r0, r0, r0, lsr #32
 800023c:	20000000 	andcs	r0, r0, r0
 8000240:	20000024 	andcs	r0, r0, r4, lsr #32
 8000244:	20000028 	andcs	r0, r0, r8, lsr #32
 8000248:	40010008 	andmi	r0, r1, r8
 800024c:	40010400 	andmi	r0, r1, r0, lsl #8
 8000250:	40010408 	andmi	r0, r1, r8, lsl #8
 8000254:	e000e100 	and	lr, r0, r0, lsl #2

08000258 <EXTI0_IRQHandler>:
 8000258:	b480      	push	{r7}
 800025a:	af00      	add	r7, sp, #0
 800025c:	f3ef 8305 	mrs	r3, IPSR
 8000260:	4a08      	ldr	r2, [pc, #32]	; (8000284 <EXTI0_IRQHandler+0x2c>)
 8000262:	6013      	str	r3, [r2, #0]
 8000264:	4b08      	ldr	r3, [pc, #32]	; (8000288 <EXTI0_IRQHandler+0x30>)
 8000266:	681b      	ldr	r3, [r3, #0]
 8000268:	4a07      	ldr	r2, [pc, #28]	; (8000288 <EXTI0_IRQHandler+0x30>)
 800026a:	f483 5300 	eor.w	r3, r3, #8192	; 0x2000
 800026e:	6013      	str	r3, [r2, #0]
 8000270:	4b06      	ldr	r3, [pc, #24]	; (800028c <EXTI0_IRQHandler+0x34>)
 8000272:	681b      	ldr	r3, [r3, #0]
 8000274:	4a05      	ldr	r2, [pc, #20]	; (800028c <EXTI0_IRQHandler+0x34>)
 8000276:	f043 0301 	orr.w	r3, r3, #1
 800027a:	6013      	str	r3, [r2, #0]
 800027c:	bf00      	nop
 800027e:	46bd      	mov	sp, r7
 8000280:	bc80      	pop	{r7}
 8000282:	4770      	bx	lr
 8000284:	2000002c 	andcs	r0, r0, ip, lsr #32
 8000288:	4001080c 	andmi	r0, r1, ip, lsl #16
 800028c:	40010414 	andmi	r0, r1, r4, lsl r4

08000290 <Reset_Handler>:
 8000290:	480d      	ldr	r0, [pc, #52]	; (80002c8 <LoopForever+0x2>)
 8000292:	4685      	mov	sp, r0
 8000294:	f3af 8000 	nop.w
 8000298:	480c      	ldr	r0, [pc, #48]	; (80002cc <LoopForever+0x6>)
 800029a:	490d      	ldr	r1, [pc, #52]	; (80002d0 <LoopForever+0xa>)
 800029c:	4a0d      	ldr	r2, [pc, #52]	; (80002d4 <LoopForever+0xe>)
 800029e:	2300      	movs	r3, #0
 80002a0:	e002      	b.n	80002a8 <LoopCopyDataInit>

080002a2 <CopyDataInit>:
 80002a2:	58d4      	ldr	r4, [r2, r3]
 80002a4:	50c4      	str	r4, [r0, r3]
 80002a6:	3304      	adds	r3, #4

080002a8 <LoopCopyDataInit>:
 80002a8:	18c4      	adds	r4, r0, r3
 80002aa:	428c      	cmp	r4, r1
 80002ac:	d3f9      	bcc.n	80002a2 <CopyDataInit>
 80002ae:	4a0a      	ldr	r2, [pc, #40]	; (80002d8 <LoopForever+0x12>)
 80002b0:	4c0a      	ldr	r4, [pc, #40]	; (80002dc <LoopForever+0x16>)
 80002b2:	2300      	movs	r3, #0
 80002b4:	e001      	b.n	80002ba <LoopFillZerobss>

080002b6 <FillZerobss>:
 80002b6:	6013      	str	r3, [r2, #0]
 80002b8:	3204      	adds	r2, #4

080002ba <LoopFillZerobss>:
 80002ba:	42a2      	cmp	r2, r4
 80002bc:	d3fb      	bcc.n	80002b6 <FillZerobss>
 80002be:	f000 f811 	bl	80002e4 <__libc_init_array>
 80002c2:	f7ff ff85 	bl	80001d0 <main>

080002c6 <LoopForever>:
 80002c6:	e7fe      	b.n	80002c6 <LoopForever>
 80002c8:	20002800 	andcs	r2, r0, r0, lsl #16
 80002cc:	20000000 	andcs	r0, r0, r0
 80002d0:	20000004 	andcs	r0, r0, r4
 80002d4:	0800034c 	stmdaeq	r0, {r2, r3, r6, r8, r9}
 80002d8:	20000004 	andcs	r0, r0, r4
 80002dc:	20000030 	andcs	r0, r0, r0, lsr r0

080002e0 <ADC1_2_IRQHandler>:
 80002e0:	e7fe      	b.n	80002e0 <ADC1_2_IRQHandler>
	...

080002e4 <__libc_init_array>:
 80002e4:	b570      	push	{r4, r5, r6, lr}
 80002e6:	2500      	movs	r5, #0
 80002e8:	4e0c      	ldr	r6, [pc, #48]	; (800031c <__libc_init_array+0x38>)
 80002ea:	4c0d      	ldr	r4, [pc, #52]	; (8000320 <__libc_init_array+0x3c>)
 80002ec:	1ba4      	subs	r4, r4, r6
 80002ee:	10a4      	asrs	r4, r4, #2
 80002f0:	42a5      	cmp	r5, r4
 80002f2:	d109      	bne.n	8000308 <__libc_init_array+0x24>
 80002f4:	f000 f81a 	bl	800032c <_init>
 80002f8:	2500      	movs	r5, #0
 80002fa:	4e0a      	ldr	r6, [pc, #40]	; (8000324 <__libc_init_array+0x40>)
 80002fc:	4c0a      	ldr	r4, [pc, #40]	; (8000328 <__libc_init_array+0x44>)
 80002fe:	1ba4      	subs	r4, r4, r6
 8000300:	10a4      	asrs	r4, r4, #2
 8000302:	42a5      	cmp	r5, r4
 8000304:	d105      	bne.n	8000312 <__libc_init_array+0x2e>
 8000306:	bd70      	pop	{r4, r5, r6, pc}
 8000308:	f856 3025 	ldr.w	r3, [r6, r5, lsl #2]
 800030c:	4798      	blx	r3
 800030e:	3501      	adds	r5, #1
 8000310:	e7ee      	b.n	80002f0 <__libc_init_array+0xc>
 8000312:	f856 3025 	ldr.w	r3, [r6, r5, lsl #2]
 8000316:	4798      	blx	r3
 8000318:	3501      	adds	r5, #1
 800031a:	e7f2      	b.n	8000302 <__libc_init_array+0x1e>
 800031c:	08000344 	stmdaeq	r0, {r2, r6, r8, r9}
 8000320:	08000344 	stmdaeq	r0, {r2, r6, r8, r9}
 8000324:	08000344 	stmdaeq	r0, {r2, r6, r8, r9}
 8000328:	08000348 	stmdaeq	r0, {r3, r6, r8, r9}

0800032c <_init>:
 800032c:	b5f8      	push	{r3, r4, r5, r6, r7, lr}
 800032e:	bf00      	nop
 8000330:	bcf8      	pop	{r3, r4, r5, r6, r7}
 8000332:	bc08      	pop	{r3}
 8000334:	469e      	mov	lr, r3
 8000336:	4770      	bx	lr

08000338 <_fini>:
 8000338:	b5f8      	push	{r3, r4, r5, r6, r7, lr}
 800033a:	bf00      	nop
 800033c:	bcf8      	pop	{r3, r4, r5, r6, r7}
 800033e:	bc08      	pop	{r3}
 8000340:	469e      	mov	lr, r3
 8000342:	4770      	bx	lr
